
build/ax2550.elf:     file format elf32-littlearm


Disassembly of section .isr_vector:

08000000 <g_pfnVectors>:
 8000000:	20030000 	andcs	r0, r3, r0
 8000004:	08000779 	stmdaeq	r0, {r0, r3, r4, r5, r6, r8, r9, sl}
 8000008:	080005bd 	stmdaeq	r0, {r0, r2, r3, r4, r5, r7, r8, sl}
 800000c:	080005cd 	stmdaeq	r0, {r0, r2, r3, r6, r7, r8, sl}
 8000010:	080005d5 	stmdaeq	r0, {r0, r2, r4, r6, r7, r8, sl}
 8000014:	080005dd 	stmdaeq	r0, {r0, r2, r3, r4, r6, r7, r8, sl}
 8000018:	080005e5 	stmdaeq	r0, {r0, r2, r5, r6, r7, r8, sl}
	...
 800002c:	080005ed 	stmdaeq	r0, {r0, r2, r3, r5, r6, r7, r8, sl}
 8000030:	080005fd 	stmdaeq	r0, {r0, r2, r3, r4, r5, r6, r7, r8, sl}
 8000034:	00000000 	andeq	r0, r0, r0
 8000038:	0800060d 	stmdaeq	r0, {r0, r2, r3, r9, sl}
 800003c:	08000381 	stmdaeq	r0, {r0, r7, r8, r9}
 8000040:	080007c9 	stmdaeq	r0, {r0, r3, r6, r7, r8, r9, sl}
 8000044:	080007c9 	stmdaeq	r0, {r0, r3, r6, r7, r8, r9, sl}
 8000048:	080007c9 	stmdaeq	r0, {r0, r3, r6, r7, r8, r9, sl}
 800004c:	080007c9 	stmdaeq	r0, {r0, r3, r6, r7, r8, r9, sl}
 8000050:	080007c9 	stmdaeq	r0, {r0, r3, r6, r7, r8, r9, sl}
 8000054:	080007c9 	stmdaeq	r0, {r0, r3, r6, r7, r8, r9, sl}
 8000058:	080007c9 	stmdaeq	r0, {r0, r3, r6, r7, r8, r9, sl}
 800005c:	080007c9 	stmdaeq	r0, {r0, r3, r6, r7, r8, r9, sl}
 8000060:	080007c9 	stmdaeq	r0, {r0, r3, r6, r7, r8, r9, sl}
 8000064:	080007c9 	stmdaeq	r0, {r0, r3, r6, r7, r8, r9, sl}
 8000068:	080007c9 	stmdaeq	r0, {r0, r3, r6, r7, r8, r9, sl}
 800006c:	080007c9 	stmdaeq	r0, {r0, r3, r6, r7, r8, r9, sl}
 8000070:	080007c9 	stmdaeq	r0, {r0, r3, r6, r7, r8, r9, sl}
 8000074:	080007c9 	stmdaeq	r0, {r0, r3, r6, r7, r8, r9, sl}
 8000078:	080007c9 	stmdaeq	r0, {r0, r3, r6, r7, r8, r9, sl}
 800007c:	080007c9 	stmdaeq	r0, {r0, r3, r6, r7, r8, r9, sl}
 8000080:	080007c9 	stmdaeq	r0, {r0, r3, r6, r7, r8, r9, sl}
 8000084:	080007c9 	stmdaeq	r0, {r0, r3, r6, r7, r8, r9, sl}
 8000088:	080007c9 	stmdaeq	r0, {r0, r3, r6, r7, r8, r9, sl}
 800008c:	080007c9 	stmdaeq	r0, {r0, r3, r6, r7, r8, r9, sl}
 8000090:	080007c9 	stmdaeq	r0, {r0, r3, r6, r7, r8, r9, sl}
 8000094:	080007c9 	stmdaeq	r0, {r0, r3, r6, r7, r8, r9, sl}
 8000098:	080007c9 	stmdaeq	r0, {r0, r3, r6, r7, r8, r9, sl}
 800009c:	080007c9 	stmdaeq	r0, {r0, r3, r6, r7, r8, r9, sl}
 80000a0:	080007c9 	stmdaeq	r0, {r0, r3, r6, r7, r8, r9, sl}
 80000a4:	080007c9 	stmdaeq	r0, {r0, r3, r6, r7, r8, r9, sl}
 80000a8:	080007c9 	stmdaeq	r0, {r0, r3, r6, r7, r8, r9, sl}
 80000ac:	080007c9 	stmdaeq	r0, {r0, r3, r6, r7, r8, r9, sl}
 80000b0:	080007c9 	stmdaeq	r0, {r0, r3, r6, r7, r8, r9, sl}
 80000b4:	080007c9 	stmdaeq	r0, {r0, r3, r6, r7, r8, r9, sl}
 80000b8:	080007c9 	stmdaeq	r0, {r0, r3, r6, r7, r8, r9, sl}
 80000bc:	080007c9 	stmdaeq	r0, {r0, r3, r6, r7, r8, r9, sl}
 80000c0:	080007c9 	stmdaeq	r0, {r0, r3, r6, r7, r8, r9, sl}
 80000c4:	080007c9 	stmdaeq	r0, {r0, r3, r6, r7, r8, r9, sl}
 80000c8:	080007c9 	stmdaeq	r0, {r0, r3, r6, r7, r8, r9, sl}
 80000cc:	080007c9 	stmdaeq	r0, {r0, r3, r6, r7, r8, r9, sl}
 80000d0:	080007c9 	stmdaeq	r0, {r0, r3, r6, r7, r8, r9, sl}
 80000d4:	080007c9 	stmdaeq	r0, {r0, r3, r6, r7, r8, r9, sl}
 80000d8:	080007c9 	stmdaeq	r0, {r0, r3, r6, r7, r8, r9, sl}
 80000dc:	080007c9 	stmdaeq	r0, {r0, r3, r6, r7, r8, r9, sl}
 80000e0:	080007c9 	stmdaeq	r0, {r0, r3, r6, r7, r8, r9, sl}
 80000e4:	080007c9 	stmdaeq	r0, {r0, r3, r6, r7, r8, r9, sl}
 80000e8:	080007c9 	stmdaeq	r0, {r0, r3, r6, r7, r8, r9, sl}
 80000ec:	080007c9 	stmdaeq	r0, {r0, r3, r6, r7, r8, r9, sl}
 80000f0:	080007c9 	stmdaeq	r0, {r0, r3, r6, r7, r8, r9, sl}
 80000f4:	080007c9 	stmdaeq	r0, {r0, r3, r6, r7, r8, r9, sl}
 80000f8:	080007c9 	stmdaeq	r0, {r0, r3, r6, r7, r8, r9, sl}
 80000fc:	080007c9 	stmdaeq	r0, {r0, r3, r6, r7, r8, r9, sl}
 8000100:	080007c9 	stmdaeq	r0, {r0, r3, r6, r7, r8, r9, sl}
 8000104:	080007c9 	stmdaeq	r0, {r0, r3, r6, r7, r8, r9, sl}
 8000108:	080007c9 	stmdaeq	r0, {r0, r3, r6, r7, r8, r9, sl}
 800010c:	080007c9 	stmdaeq	r0, {r0, r3, r6, r7, r8, r9, sl}
 8000110:	080007c9 	stmdaeq	r0, {r0, r3, r6, r7, r8, r9, sl}
 8000114:	080007c9 	stmdaeq	r0, {r0, r3, r6, r7, r8, r9, sl}
 8000118:	080007c9 	stmdaeq	r0, {r0, r3, r6, r7, r8, r9, sl}
 800011c:	080007c9 	stmdaeq	r0, {r0, r3, r6, r7, r8, r9, sl}
 8000120:	080007c9 	stmdaeq	r0, {r0, r3, r6, r7, r8, r9, sl}
 8000124:	080007c9 	stmdaeq	r0, {r0, r3, r6, r7, r8, r9, sl}
 8000128:	080007c9 	stmdaeq	r0, {r0, r3, r6, r7, r8, r9, sl}
 800012c:	080007c9 	stmdaeq	r0, {r0, r3, r6, r7, r8, r9, sl}
 8000130:	080007c9 	stmdaeq	r0, {r0, r3, r6, r7, r8, r9, sl}
 8000134:	080007c9 	stmdaeq	r0, {r0, r3, r6, r7, r8, r9, sl}
 8000138:	080007c9 	stmdaeq	r0, {r0, r3, r6, r7, r8, r9, sl}
 800013c:	080007c9 	stmdaeq	r0, {r0, r3, r6, r7, r8, r9, sl}
 8000140:	080007c9 	stmdaeq	r0, {r0, r3, r6, r7, r8, r9, sl}
 8000144:	080007c9 	stmdaeq	r0, {r0, r3, r6, r7, r8, r9, sl}
 8000148:	080007c9 	stmdaeq	r0, {r0, r3, r6, r7, r8, r9, sl}
 800014c:	080007c9 	stmdaeq	r0, {r0, r3, r6, r7, r8, r9, sl}
 8000150:	080007c9 	stmdaeq	r0, {r0, r3, r6, r7, r8, r9, sl}
 8000154:	080007c9 	stmdaeq	r0, {r0, r3, r6, r7, r8, r9, sl}
 8000158:	080007c9 	stmdaeq	r0, {r0, r3, r6, r7, r8, r9, sl}
 800015c:	080007c9 	stmdaeq	r0, {r0, r3, r6, r7, r8, r9, sl}
 8000160:	080007c9 	stmdaeq	r0, {r0, r3, r6, r7, r8, r9, sl}
 8000164:	080007c9 	stmdaeq	r0, {r0, r3, r6, r7, r8, r9, sl}
 8000168:	080007c9 	stmdaeq	r0, {r0, r3, r6, r7, r8, r9, sl}
 800016c:	080007c9 	stmdaeq	r0, {r0, r3, r6, r7, r8, r9, sl}
 8000170:	080007c9 	stmdaeq	r0, {r0, r3, r6, r7, r8, r9, sl}
 8000174:	080007c9 	stmdaeq	r0, {r0, r3, r6, r7, r8, r9, sl}
 8000178:	080007c9 	stmdaeq	r0, {r0, r3, r6, r7, r8, r9, sl}
 800017c:	00000000 	andeq	r0, r0, r0
 8000180:	080007c9 	stmdaeq	r0, {r0, r3, r6, r7, r8, r9, sl}
 8000184:	080007c9 	stmdaeq	r0, {r0, r3, r6, r7, r8, r9, sl}
 8000188:	080007c9 	stmdaeq	r0, {r0, r3, r6, r7, r8, r9, sl}
 800018c:	080007c9 	stmdaeq	r0, {r0, r3, r6, r7, r8, r9, sl}
 8000190:	080007c9 	stmdaeq	r0, {r0, r3, r6, r7, r8, r9, sl}
 8000194:	080007c9 	stmdaeq	r0, {r0, r3, r6, r7, r8, r9, sl}
 8000198:	080007c9 	stmdaeq	r0, {r0, r3, r6, r7, r8, r9, sl}
 800019c:	080007c9 	stmdaeq	r0, {r0, r3, r6, r7, r8, r9, sl}
 80001a0:	080007c9 	stmdaeq	r0, {r0, r3, r6, r7, r8, r9, sl}
 80001a4:	080007c9 	stmdaeq	r0, {r0, r3, r6, r7, r8, r9, sl}
 80001a8:	080007c9 	stmdaeq	r0, {r0, r3, r6, r7, r8, r9, sl}

Disassembly of section .inits:

080001ac <__data_regions_array_start>:
 80001ac:	080009c4 	stmdaeq	r0, {r2, r6, r7, r8, fp}
 80001b0:	20000000 	andcs	r0, r0, r0
 80001b4:	20000430 	andcs	r0, r0, r0, lsr r4
 80001b8:	080009c4 	stmdaeq	r0, {r2, r6, r7, r8, fp}
 80001bc:	10000000 	andne	r0, r0, r0
 80001c0:	10000000 	andne	r0, r0, r0

080001c4 <__bss_regions_array_start>:
 80001c4:	20000430 	andcs	r0, r0, r0, lsr r4
 80001c8:	2000045c 	andcs	r0, r0, ip, asr r4
 80001cc:	10000000 	andne	r0, r0, r0
 80001d0:	10000000 	andne	r0, r0, r0

080001d4 <_init>:
 80001d4:	e1a0c00d 	mov	ip, sp
 80001d8:	e92ddff8 	push	{r3, r4, r5, r6, r7, r8, r9, sl, fp, ip, lr, pc}
 80001dc:	e24cb004 	sub	fp, ip, #4
 80001e0:	e24bd028 	sub	sp, fp, #40	; 0x28
 80001e4:	e89d6ff0 	ldm	sp, {r4, r5, r6, r7, r8, r9, sl, fp, sp, lr}
 80001e8:	e12fff1e 	bx	lr

080001ec <_fini>:
 80001ec:	e1a0c00d 	mov	ip, sp
 80001f0:	e92ddff8 	push	{r3, r4, r5, r6, r7, r8, r9, sl, fp, ip, lr, pc}
 80001f4:	e24cb004 	sub	fp, ip, #4
 80001f8:	e24bd028 	sub	sp, fp, #40	; 0x28
 80001fc:	e89d6ff0 	ldm	sp, {r4, r5, r6, r7, r8, r9, sl, fp, sp, lr}
 8000200:	e12fff1e 	bx	lr

08000204 <__init_array_start>:
 8000204:	0800084c 	stmdaeq	r0, {r2, r3, r6, fp}

08000208 <__frame_dummy_init_array_entry>:
 8000208:	08000250 	stmdaeq	r0, {r4, r6, r9}

0800020c <__do_global_dtors_aux_fini_array_entry>:
 800020c:	08000210 	stmdaeq	r0, {r4, r9}

Disassembly of section .text:

08000210 <__do_global_dtors_aux>:
 8000210:	e92d4010 	push	{r4, lr}
 8000214:	e59f4028 	ldr	r4, [pc, #40]	; 8000244 <__fini_array_end+0x34>
 8000218:	e5d43000 	ldrb	r3, [r4]
 800021c:	e3530000 	cmp	r3, #0
 8000220:	1a000005 	bne	800023c <__do_global_dtors_aux+0x2c>
 8000224:	e59f301c 	ldr	r3, [pc, #28]	; 8000248 <__fini_array_end+0x38>
 8000228:	e3530000 	cmp	r3, #0
 800022c:	159f0018 	ldrne	r0, [pc, #24]	; 800024c <__fini_array_end+0x3c>
 8000230:	1320f000 	nopne	{0}
 8000234:	e3a03001 	mov	r3, #1
 8000238:	e5c43000 	strb	r3, [r4]
 800023c:	e8bd4010 	pop	{r4, lr}
 8000240:	ff1e e12f 	vrhadd.u16	d14, d14, d31
 8000244:	20000430 	andcs	r0, r0, r0, lsr r4
 8000248:	0000      	movs	r0, r0
 800024a:	0000      	movs	r0, r0
 800024c:	080009c0 	stmdaeq	r0, {r6, r7, r8, fp}

08000250 <frame_dummy>:
 8000250:	303c      	adds	r0, #60	; 0x3c
 8000252:	e59f      	b.n	7fffd94 <__Main_Stack_Size+0x7fff994>
 8000254:	0000      	movs	r0, r0
 8000256:	e353      	b.n	8000900 <__register_exitproc+0x28>
 8000258:	4010      	ands	r0, r2
 800025a:	e92d 1034 	stmdb	sp!, {r2, r4, r5, ip}
 800025e:	159f      	asrs	r7, r3, #22
 8000260:	0034      	movs	r4, r6
 8000262:	159f      	asrs	r7, r3, #22
 8000264:	1320f000 	nopne	{0}
 8000268:	0030      	movs	r0, r6
 800026a:	3000e59f 	mulcc	r0, pc, r5	; <UNPREDICTABLE>
 800026e:	e590      	b.n	7fffd92 <__Main_Stack_Size+0x7fff992>
 8000270:	e3530000 	cmp	r3, #0
 8000274:	0001      	movs	r1, r0
 8000276:	40101a00 	andsmi	r1, r0, r0, lsl #20
 800027a:	e8bd ff1e 	ldmia.w	sp!, {r1, r2, r3, r4, r8, r9, sl, fp, ip, sp, lr, pc}
 800027e:	301ce12f 	andscc	lr, ip, pc, lsr #2
 8000282:	e59f      	b.n	7fffdc4 <__Main_Stack_Size+0x7fff9c4>
 8000284:	e3530000 	cmp	r3, #0
 8000288:	fffa 0aff 			; <UNDEFINED> instruction: 0xfffa0aff
 800028c:	e8bd4010 	pop	{r4, lr}
 8000290:	ff13 e12f 	vrhadd.u16	d14, d3, d31
 8000294:	00000000 	andeq	r0, r0, r0
 8000298:	20000434 	andcs	r0, r0, r4, lsr r4
 800029c:	080009c0 	stmdaeq	r0, {r6, r7, r8, fp}
 80002a0:	20000430 	andcs	r0, r0, r0, lsr r4
 80002a4:	00000000 	andeq	r0, r0, r0

080002a8 <NVIC_SetPriority>:
 80002a8:	b480      	push	{r7}
 80002aa:	b083      	sub	sp, #12
 80002ac:	af00      	add	r7, sp, #0
 80002ae:	4603      	mov	r3, r0
 80002b0:	6039      	str	r1, [r7, #0]
 80002b2:	71fb      	strb	r3, [r7, #7]
 80002b4:	f997 3007 	ldrsb.w	r3, [r7, #7]
 80002b8:	2b00      	cmp	r3, #0
 80002ba:	da0b      	bge.n	80002d4 <NVIC_SetPriority+0x2c>
 80002bc:	490d      	ldr	r1, [pc, #52]	; (80002f4 <NVIC_SetPriority+0x4c>)
 80002be:	79fb      	ldrb	r3, [r7, #7]
 80002c0:	f003 030f 	and.w	r3, r3, #15
 80002c4:	3b04      	subs	r3, #4
 80002c6:	683a      	ldr	r2, [r7, #0]
 80002c8:	b2d2      	uxtb	r2, r2
 80002ca:	0112      	lsls	r2, r2, #4
 80002cc:	b2d2      	uxtb	r2, r2
 80002ce:	440b      	add	r3, r1
 80002d0:	761a      	strb	r2, [r3, #24]
 80002d2:	e009      	b.n	80002e8 <NVIC_SetPriority+0x40>
 80002d4:	4908      	ldr	r1, [pc, #32]	; (80002f8 <NVIC_SetPriority+0x50>)
 80002d6:	f997 3007 	ldrsb.w	r3, [r7, #7]
 80002da:	683a      	ldr	r2, [r7, #0]
 80002dc:	b2d2      	uxtb	r2, r2
 80002de:	0112      	lsls	r2, r2, #4
 80002e0:	b2d2      	uxtb	r2, r2
 80002e2:	440b      	add	r3, r1
 80002e4:	f883 2300 	strb.w	r2, [r3, #768]	; 0x300
 80002e8:	bf00      	nop
 80002ea:	370c      	adds	r7, #12
 80002ec:	46bd      	mov	sp, r7
 80002ee:	f85d 7b04 	ldr.w	r7, [sp], #4
 80002f2:	4770      	bx	lr
 80002f4:	e000ed00 	and	lr, r0, r0, lsl #26
 80002f8:	e000e100 	and	lr, r0, r0, lsl #2

080002fc <SysTick_Config>:
 80002fc:	b580      	push	{r7, lr}
 80002fe:	b082      	sub	sp, #8
 8000300:	af00      	add	r7, sp, #0
 8000302:	6078      	str	r0, [r7, #4]
 8000304:	687b      	ldr	r3, [r7, #4]
 8000306:	3b01      	subs	r3, #1
 8000308:	f1b3 7f80 	cmp.w	r3, #16777216	; 0x1000000
 800030c:	d301      	bcc.n	8000312 <SysTick_Config+0x16>
 800030e:	2301      	movs	r3, #1
 8000310:	e00f      	b.n	8000332 <SysTick_Config+0x36>
 8000312:	4a0a      	ldr	r2, [pc, #40]	; (800033c <SysTick_Config+0x40>)
 8000314:	687b      	ldr	r3, [r7, #4]
 8000316:	3b01      	subs	r3, #1
 8000318:	6053      	str	r3, [r2, #4]
 800031a:	210f      	movs	r1, #15
 800031c:	f04f 30ff 	mov.w	r0, #4294967295	; 0xffffffff
 8000320:	f7ff ffc2 	bl	80002a8 <NVIC_SetPriority>
 8000324:	4b05      	ldr	r3, [pc, #20]	; (800033c <SysTick_Config+0x40>)
 8000326:	2200      	movs	r2, #0
 8000328:	609a      	str	r2, [r3, #8]
 800032a:	4b04      	ldr	r3, [pc, #16]	; (800033c <SysTick_Config+0x40>)
 800032c:	2207      	movs	r2, #7
 800032e:	601a      	str	r2, [r3, #0]
 8000330:	2300      	movs	r3, #0
 8000332:	4618      	mov	r0, r3
 8000334:	3708      	adds	r7, #8
 8000336:	46bd      	mov	sp, r7
 8000338:	bd80      	pop	{r7, pc}
 800033a:	bf00      	nop
 800033c:	e000e010 	and	lr, r0, r0, lsl r0

08000340 <GPIO_Config>:
 8000340:	b580      	push	{r7, lr}
 8000342:	af00      	add	r7, sp, #0
 8000344:	2101      	movs	r1, #1
 8000346:	2040      	movs	r0, #64	; 0x40
 8000348:	f000 f968 	bl	800061c <RCC_AHB1PeriphClockCmd>
 800034c:	4b0a      	ldr	r3, [pc, #40]	; (8000378 <GPIO_Config+0x38>)
 800034e:	f44f 42c0 	mov.w	r2, #24576	; 0x6000
 8000352:	601a      	str	r2, [r3, #0]
 8000354:	4b08      	ldr	r3, [pc, #32]	; (8000378 <GPIO_Config+0x38>)
 8000356:	2201      	movs	r2, #1
 8000358:	711a      	strb	r2, [r3, #4]
 800035a:	4b07      	ldr	r3, [pc, #28]	; (8000378 <GPIO_Config+0x38>)
 800035c:	2202      	movs	r2, #2
 800035e:	715a      	strb	r2, [r3, #5]
 8000360:	4b05      	ldr	r3, [pc, #20]	; (8000378 <GPIO_Config+0x38>)
 8000362:	2200      	movs	r2, #0
 8000364:	719a      	strb	r2, [r3, #6]
 8000366:	4b04      	ldr	r3, [pc, #16]	; (8000378 <GPIO_Config+0x38>)
 8000368:	2201      	movs	r2, #1
 800036a:	71da      	strb	r2, [r3, #7]
 800036c:	4902      	ldr	r1, [pc, #8]	; (8000378 <GPIO_Config+0x38>)
 800036e:	4803      	ldr	r0, [pc, #12]	; (800037c <GPIO_Config+0x3c>)
 8000370:	f000 f974 	bl	800065c <GPIO_Init>
 8000374:	bf00      	nop
 8000376:	bd80      	pop	{r7, pc}
 8000378:	20000450 	andcs	r0, r0, r0, asr r4
 800037c:	40021800 	andmi	r1, r2, r0, lsl #16

08000380 <SysTick_Handler>:
 8000380:	b480      	push	{r7}
 8000382:	af00      	add	r7, sp, #0
 8000384:	4b0e      	ldr	r3, [pc, #56]	; (80003c0 <SysTick_Handler+0x40>)
 8000386:	681b      	ldr	r3, [r3, #0]
 8000388:	3301      	adds	r3, #1
 800038a:	4a0d      	ldr	r2, [pc, #52]	; (80003c0 <SysTick_Handler+0x40>)
 800038c:	6013      	str	r3, [r2, #0]
 800038e:	4b0d      	ldr	r3, [pc, #52]	; (80003c4 <SysTick_Handler+0x44>)
 8000390:	681b      	ldr	r3, [r3, #0]
 8000392:	3301      	adds	r3, #1
 8000394:	4a0b      	ldr	r2, [pc, #44]	; (80003c4 <SysTick_Handler+0x44>)
 8000396:	6013      	str	r3, [r2, #0]
 8000398:	4b0a      	ldr	r3, [pc, #40]	; (80003c4 <SysTick_Handler+0x44>)
 800039a:	681b      	ldr	r3, [r3, #0]
 800039c:	f5b3 7f7a 	cmp.w	r3, #1000	; 0x3e8
 80003a0:	d108      	bne.n	80003b4 <SysTick_Handler+0x34>
 80003a2:	4a09      	ldr	r2, [pc, #36]	; (80003c8 <SysTick_Handler+0x48>)
 80003a4:	4b08      	ldr	r3, [pc, #32]	; (80003c8 <SysTick_Handler+0x48>)
 80003a6:	695b      	ldr	r3, [r3, #20]
 80003a8:	f483 4380 	eor.w	r3, r3, #16384	; 0x4000
 80003ac:	6153      	str	r3, [r2, #20]
 80003ae:	4b05      	ldr	r3, [pc, #20]	; (80003c4 <SysTick_Handler+0x44>)
 80003b0:	2200      	movs	r2, #0
 80003b2:	601a      	str	r2, [r3, #0]
 80003b4:	bf00      	nop
 80003b6:	46bd      	mov	sp, r7
 80003b8:	f85d 7b04 	ldr.w	r7, [sp], #4
 80003bc:	4770      	bx	lr
 80003be:	bf00      	nop
 80003c0:	2000044c 	andcs	r0, r0, ip, asr #8
 80003c4:	20000458 	andcs	r0, r0, r8, asr r4
 80003c8:	40021800 	andmi	r1, r2, r0, lsl #16

080003cc <main>:
 80003cc:	b580      	push	{r7, lr}
 80003ce:	b082      	sub	sp, #8
 80003d0:	af00      	add	r7, sp, #0
 80003d2:	4b11      	ldr	r3, [pc, #68]	; (8000418 <main+0x4c>)
 80003d4:	681b      	ldr	r3, [r3, #0]
 80003d6:	4a11      	ldr	r2, [pc, #68]	; (800041c <main+0x50>)
 80003d8:	fba2 2303 	umull	r2, r3, r2, r3
 80003dc:	099b      	lsrs	r3, r3, #6
 80003de:	4618      	mov	r0, r3
 80003e0:	f7ff ff8c 	bl	80002fc <SysTick_Config>
 80003e4:	4603      	mov	r3, r0
 80003e6:	2b00      	cmp	r3, #0
 80003e8:	d000      	beq.n	80003ec <main+0x20>
 80003ea:	e7fe      	b.n	80003ea <main+0x1e>
 80003ec:	f7ff ffa8 	bl	8000340 <GPIO_Config>
 80003f0:	2300      	movs	r3, #0
 80003f2:	607b      	str	r3, [r7, #4]
 80003f4:	2300      	movs	r3, #0
 80003f6:	607b      	str	r3, [r7, #4]
 80003f8:	e002      	b.n	8000400 <main+0x34>
 80003fa:	687b      	ldr	r3, [r7, #4]
 80003fc:	3301      	adds	r3, #1
 80003fe:	607b      	str	r3, [r7, #4]
 8000400:	687b      	ldr	r3, [r7, #4]
 8000402:	f5b3 7ffa 	cmp.w	r3, #500	; 0x1f4
 8000406:	dbf8      	blt.n	80003fa <main+0x2e>
 8000408:	4a05      	ldr	r2, [pc, #20]	; (8000420 <main+0x54>)
 800040a:	4b05      	ldr	r3, [pc, #20]	; (8000420 <main+0x54>)
 800040c:	695b      	ldr	r3, [r3, #20]
 800040e:	f483 5300 	eor.w	r3, r3, #8192	; 0x2000
 8000412:	6153      	str	r3, [r2, #20]
 8000414:	e7ee      	b.n	80003f4 <main+0x28>
 8000416:	bf00      	nop
 8000418:	20000000 	andcs	r0, r0, r0
 800041c:	10624dd3 	ldrdne	r4, [r2], #-211	; 0xffffff2d	; <UNPREDICTABLE>
 8000420:	40021800 	andmi	r1, r2, r0, lsl #16

08000424 <SystemInit>:
 8000424:	b580      	push	{r7, lr}
 8000426:	af00      	add	r7, sp, #0
 8000428:	4a16      	ldr	r2, [pc, #88]	; (8000484 <SystemInit+0x60>)
 800042a:	4b16      	ldr	r3, [pc, #88]	; (8000484 <SystemInit+0x60>)
 800042c:	f8d3 3088 	ldr.w	r3, [r3, #136]	; 0x88
 8000430:	f443 0370 	orr.w	r3, r3, #15728640	; 0xf00000
 8000434:	f8c2 3088 	str.w	r3, [r2, #136]	; 0x88
 8000438:	4a13      	ldr	r2, [pc, #76]	; (8000488 <SystemInit+0x64>)
 800043a:	4b13      	ldr	r3, [pc, #76]	; (8000488 <SystemInit+0x64>)
 800043c:	681b      	ldr	r3, [r3, #0]
 800043e:	f043 0301 	orr.w	r3, r3, #1
 8000442:	6013      	str	r3, [r2, #0]
 8000444:	4b10      	ldr	r3, [pc, #64]	; (8000488 <SystemInit+0x64>)
 8000446:	2200      	movs	r2, #0
 8000448:	609a      	str	r2, [r3, #8]
 800044a:	4a0f      	ldr	r2, [pc, #60]	; (8000488 <SystemInit+0x64>)
 800044c:	4b0e      	ldr	r3, [pc, #56]	; (8000488 <SystemInit+0x64>)
 800044e:	681b      	ldr	r3, [r3, #0]
 8000450:	f023 7384 	bic.w	r3, r3, #17301504	; 0x1080000
 8000454:	f423 3380 	bic.w	r3, r3, #65536	; 0x10000
 8000458:	6013      	str	r3, [r2, #0]
 800045a:	4b0b      	ldr	r3, [pc, #44]	; (8000488 <SystemInit+0x64>)
 800045c:	4a0b      	ldr	r2, [pc, #44]	; (800048c <SystemInit+0x68>)
 800045e:	605a      	str	r2, [r3, #4]
 8000460:	4a09      	ldr	r2, [pc, #36]	; (8000488 <SystemInit+0x64>)
 8000462:	4b09      	ldr	r3, [pc, #36]	; (8000488 <SystemInit+0x64>)
 8000464:	681b      	ldr	r3, [r3, #0]
 8000466:	f423 2380 	bic.w	r3, r3, #262144	; 0x40000
 800046a:	6013      	str	r3, [r2, #0]
 800046c:	4b06      	ldr	r3, [pc, #24]	; (8000488 <SystemInit+0x64>)
 800046e:	2200      	movs	r2, #0
 8000470:	60da      	str	r2, [r3, #12]
 8000472:	f000 f80d 	bl	8000490 <SetSysClock>
 8000476:	4b03      	ldr	r3, [pc, #12]	; (8000484 <SystemInit+0x60>)
 8000478:	f04f 6200 	mov.w	r2, #134217728	; 0x8000000
 800047c:	609a      	str	r2, [r3, #8]
 800047e:	bf00      	nop
 8000480:	bd80      	pop	{r7, pc}
 8000482:	bf00      	nop
 8000484:	e000ed00 	and	lr, r0, r0, lsl #26
 8000488:	40023800 	andmi	r3, r2, r0, lsl #16
 800048c:	24003010 	strcs	r3, [r0], #-16

08000490 <SetSysClock>:
 8000490:	b480      	push	{r7}
 8000492:	b083      	sub	sp, #12
 8000494:	af00      	add	r7, sp, #0
 8000496:	2300      	movs	r3, #0
 8000498:	607b      	str	r3, [r7, #4]
 800049a:	2300      	movs	r3, #0
 800049c:	603b      	str	r3, [r7, #0]
 800049e:	4a43      	ldr	r2, [pc, #268]	; (80005ac <SetSysClock+0x11c>)
 80004a0:	4b42      	ldr	r3, [pc, #264]	; (80005ac <SetSysClock+0x11c>)
 80004a2:	681b      	ldr	r3, [r3, #0]
 80004a4:	f443 3380 	orr.w	r3, r3, #65536	; 0x10000
 80004a8:	6013      	str	r3, [r2, #0]
 80004aa:	4b40      	ldr	r3, [pc, #256]	; (80005ac <SetSysClock+0x11c>)
 80004ac:	681b      	ldr	r3, [r3, #0]
 80004ae:	f403 3300 	and.w	r3, r3, #131072	; 0x20000
 80004b2:	603b      	str	r3, [r7, #0]
 80004b4:	687b      	ldr	r3, [r7, #4]
 80004b6:	3301      	adds	r3, #1
 80004b8:	607b      	str	r3, [r7, #4]
 80004ba:	683b      	ldr	r3, [r7, #0]
 80004bc:	2b00      	cmp	r3, #0
 80004be:	d103      	bne.n	80004c8 <SetSysClock+0x38>
 80004c0:	687b      	ldr	r3, [r7, #4]
 80004c2:	f5b3 4fa0 	cmp.w	r3, #20480	; 0x5000
 80004c6:	d1f0      	bne.n	80004aa <SetSysClock+0x1a>
 80004c8:	4b38      	ldr	r3, [pc, #224]	; (80005ac <SetSysClock+0x11c>)
 80004ca:	681b      	ldr	r3, [r3, #0]
 80004cc:	f403 3300 	and.w	r3, r3, #131072	; 0x20000
 80004d0:	2b00      	cmp	r3, #0
 80004d2:	d002      	beq.n	80004da <SetSysClock+0x4a>
 80004d4:	2301      	movs	r3, #1
 80004d6:	603b      	str	r3, [r7, #0]
 80004d8:	e001      	b.n	80004de <SetSysClock+0x4e>
 80004da:	2300      	movs	r3, #0
 80004dc:	603b      	str	r3, [r7, #0]
 80004de:	683b      	ldr	r3, [r7, #0]
 80004e0:	2b01      	cmp	r3, #1
 80004e2:	d15c      	bne.n	800059e <SetSysClock+0x10e>
 80004e4:	4a31      	ldr	r2, [pc, #196]	; (80005ac <SetSysClock+0x11c>)
 80004e6:	4b31      	ldr	r3, [pc, #196]	; (80005ac <SetSysClock+0x11c>)
 80004e8:	6c1b      	ldr	r3, [r3, #64]	; 0x40
 80004ea:	f043 5380 	orr.w	r3, r3, #268435456	; 0x10000000
 80004ee:	6413      	str	r3, [r2, #64]	; 0x40
 80004f0:	4a2f      	ldr	r2, [pc, #188]	; (80005b0 <SetSysClock+0x120>)
 80004f2:	4b2f      	ldr	r3, [pc, #188]	; (80005b0 <SetSysClock+0x120>)
 80004f4:	681b      	ldr	r3, [r3, #0]
 80004f6:	f443 4340 	orr.w	r3, r3, #49152	; 0xc000
 80004fa:	6013      	str	r3, [r2, #0]
 80004fc:	4a2b      	ldr	r2, [pc, #172]	; (80005ac <SetSysClock+0x11c>)
 80004fe:	4b2b      	ldr	r3, [pc, #172]	; (80005ac <SetSysClock+0x11c>)
 8000500:	689b      	ldr	r3, [r3, #8]
 8000502:	6093      	str	r3, [r2, #8]
 8000504:	4a29      	ldr	r2, [pc, #164]	; (80005ac <SetSysClock+0x11c>)
 8000506:	4b29      	ldr	r3, [pc, #164]	; (80005ac <SetSysClock+0x11c>)
 8000508:	689b      	ldr	r3, [r3, #8]
 800050a:	f443 4300 	orr.w	r3, r3, #32768	; 0x8000
 800050e:	6093      	str	r3, [r2, #8]
 8000510:	4a26      	ldr	r2, [pc, #152]	; (80005ac <SetSysClock+0x11c>)
 8000512:	4b26      	ldr	r3, [pc, #152]	; (80005ac <SetSysClock+0x11c>)
 8000514:	689b      	ldr	r3, [r3, #8]
 8000516:	f443 53a0 	orr.w	r3, r3, #5120	; 0x1400
 800051a:	6093      	str	r3, [r2, #8]
 800051c:	4b23      	ldr	r3, [pc, #140]	; (80005ac <SetSysClock+0x11c>)
 800051e:	4a25      	ldr	r2, [pc, #148]	; (80005b4 <SetSysClock+0x124>)
 8000520:	605a      	str	r2, [r3, #4]
 8000522:	4a22      	ldr	r2, [pc, #136]	; (80005ac <SetSysClock+0x11c>)
 8000524:	4b21      	ldr	r3, [pc, #132]	; (80005ac <SetSysClock+0x11c>)
 8000526:	681b      	ldr	r3, [r3, #0]
 8000528:	f043 7380 	orr.w	r3, r3, #16777216	; 0x1000000
 800052c:	6013      	str	r3, [r2, #0]
 800052e:	bf00      	nop
 8000530:	4b1e      	ldr	r3, [pc, #120]	; (80005ac <SetSysClock+0x11c>)
 8000532:	681b      	ldr	r3, [r3, #0]
 8000534:	f003 7300 	and.w	r3, r3, #33554432	; 0x2000000
 8000538:	2b00      	cmp	r3, #0
 800053a:	d0f9      	beq.n	8000530 <SetSysClock+0xa0>
 800053c:	4a1c      	ldr	r2, [pc, #112]	; (80005b0 <SetSysClock+0x120>)
 800053e:	4b1c      	ldr	r3, [pc, #112]	; (80005b0 <SetSysClock+0x120>)
 8000540:	681b      	ldr	r3, [r3, #0]
 8000542:	f443 3380 	orr.w	r3, r3, #65536	; 0x10000
 8000546:	6013      	str	r3, [r2, #0]
 8000548:	bf00      	nop
 800054a:	4b19      	ldr	r3, [pc, #100]	; (80005b0 <SetSysClock+0x120>)
 800054c:	685b      	ldr	r3, [r3, #4]
 800054e:	f403 3380 	and.w	r3, r3, #65536	; 0x10000
 8000552:	2b00      	cmp	r3, #0
 8000554:	d0f9      	beq.n	800054a <SetSysClock+0xba>
 8000556:	4a16      	ldr	r2, [pc, #88]	; (80005b0 <SetSysClock+0x120>)
 8000558:	4b15      	ldr	r3, [pc, #84]	; (80005b0 <SetSysClock+0x120>)
 800055a:	681b      	ldr	r3, [r3, #0]
 800055c:	f443 3300 	orr.w	r3, r3, #131072	; 0x20000
 8000560:	6013      	str	r3, [r2, #0]
 8000562:	bf00      	nop
 8000564:	4b12      	ldr	r3, [pc, #72]	; (80005b0 <SetSysClock+0x120>)
 8000566:	685b      	ldr	r3, [r3, #4]
 8000568:	f403 3300 	and.w	r3, r3, #131072	; 0x20000
 800056c:	2b00      	cmp	r3, #0
 800056e:	d0f9      	beq.n	8000564 <SetSysClock+0xd4>
 8000570:	4b11      	ldr	r3, [pc, #68]	; (80005b8 <SetSysClock+0x128>)
 8000572:	f240 7205 	movw	r2, #1797	; 0x705
 8000576:	601a      	str	r2, [r3, #0]
 8000578:	4a0c      	ldr	r2, [pc, #48]	; (80005ac <SetSysClock+0x11c>)
 800057a:	4b0c      	ldr	r3, [pc, #48]	; (80005ac <SetSysClock+0x11c>)
 800057c:	689b      	ldr	r3, [r3, #8]
 800057e:	f023 0303 	bic.w	r3, r3, #3
 8000582:	6093      	str	r3, [r2, #8]
 8000584:	4a09      	ldr	r2, [pc, #36]	; (80005ac <SetSysClock+0x11c>)
 8000586:	4b09      	ldr	r3, [pc, #36]	; (80005ac <SetSysClock+0x11c>)
 8000588:	689b      	ldr	r3, [r3, #8]
 800058a:	f043 0302 	orr.w	r3, r3, #2
 800058e:	6093      	str	r3, [r2, #8]
 8000590:	bf00      	nop
 8000592:	4b06      	ldr	r3, [pc, #24]	; (80005ac <SetSysClock+0x11c>)
 8000594:	689b      	ldr	r3, [r3, #8]
 8000596:	f003 030c 	and.w	r3, r3, #12
 800059a:	2b08      	cmp	r3, #8
 800059c:	d1f9      	bne.n	8000592 <SetSysClock+0x102>
 800059e:	bf00      	nop
 80005a0:	370c      	adds	r7, #12
 80005a2:	46bd      	mov	sp, r7
 80005a4:	f85d 7b04 	ldr.w	r7, [sp], #4
 80005a8:	4770      	bx	lr
 80005aa:	bf00      	nop
 80005ac:	40023800 	andmi	r3, r2, r0, lsl #16
 80005b0:	40007000 	andmi	r7, r0, r0
 80005b4:	07405a08 	strbeq	r5, [r0, -r8, lsl #20]
 80005b8:	40023c00 	andmi	r3, r2, r0, lsl #24

080005bc <NMI_Handler>:
 80005bc:	b480      	push	{r7}
 80005be:	af00      	add	r7, sp, #0
 80005c0:	bf00      	nop
 80005c2:	46bd      	mov	sp, r7
 80005c4:	f85d 7b04 	ldr.w	r7, [sp], #4
 80005c8:	4770      	bx	lr
 80005ca:	bf00      	nop

080005cc <HardFault_Handler>:
 80005cc:	b480      	push	{r7}
 80005ce:	af00      	add	r7, sp, #0
 80005d0:	e7fe      	b.n	80005d0 <HardFault_Handler+0x4>
 80005d2:	bf00      	nop

080005d4 <MemManage_Handler>:
 80005d4:	b480      	push	{r7}
 80005d6:	af00      	add	r7, sp, #0
 80005d8:	e7fe      	b.n	80005d8 <MemManage_Handler+0x4>
 80005da:	bf00      	nop

080005dc <BusFault_Handler>:
 80005dc:	b480      	push	{r7}
 80005de:	af00      	add	r7, sp, #0
 80005e0:	e7fe      	b.n	80005e0 <BusFault_Handler+0x4>
 80005e2:	bf00      	nop

080005e4 <UsageFault_Handler>:
 80005e4:	b480      	push	{r7}
 80005e6:	af00      	add	r7, sp, #0
 80005e8:	e7fe      	b.n	80005e8 <UsageFault_Handler+0x4>
 80005ea:	bf00      	nop

080005ec <SVC_Handler>:
 80005ec:	b480      	push	{r7}
 80005ee:	af00      	add	r7, sp, #0
 80005f0:	bf00      	nop
 80005f2:	46bd      	mov	sp, r7
 80005f4:	f85d 7b04 	ldr.w	r7, [sp], #4
 80005f8:	4770      	bx	lr
 80005fa:	bf00      	nop

080005fc <DebugMon_Handler>:
 80005fc:	b480      	push	{r7}
 80005fe:	af00      	add	r7, sp, #0
 8000600:	bf00      	nop
 8000602:	46bd      	mov	sp, r7
 8000604:	f85d 7b04 	ldr.w	r7, [sp], #4
 8000608:	4770      	bx	lr
 800060a:	bf00      	nop

0800060c <PendSV_Handler>:
 800060c:	b480      	push	{r7}
 800060e:	af00      	add	r7, sp, #0
 8000610:	bf00      	nop
 8000612:	46bd      	mov	sp, r7
 8000614:	f85d 7b04 	ldr.w	r7, [sp], #4
 8000618:	4770      	bx	lr
 800061a:	bf00      	nop

0800061c <RCC_AHB1PeriphClockCmd>:
 800061c:	b480      	push	{r7}
 800061e:	b083      	sub	sp, #12
 8000620:	af00      	add	r7, sp, #0
 8000622:	6078      	str	r0, [r7, #4]
 8000624:	460b      	mov	r3, r1
 8000626:	70fb      	strb	r3, [r7, #3]
 8000628:	78fb      	ldrb	r3, [r7, #3]
 800062a:	2b00      	cmp	r3, #0
 800062c:	d006      	beq.n	800063c <RCC_AHB1PeriphClockCmd+0x20>
 800062e:	490a      	ldr	r1, [pc, #40]	; (8000658 <RCC_AHB1PeriphClockCmd+0x3c>)
 8000630:	4b09      	ldr	r3, [pc, #36]	; (8000658 <RCC_AHB1PeriphClockCmd+0x3c>)
 8000632:	6b1a      	ldr	r2, [r3, #48]	; 0x30
 8000634:	687b      	ldr	r3, [r7, #4]
 8000636:	4313      	orrs	r3, r2
 8000638:	630b      	str	r3, [r1, #48]	; 0x30
 800063a:	e006      	b.n	800064a <RCC_AHB1PeriphClockCmd+0x2e>
 800063c:	4906      	ldr	r1, [pc, #24]	; (8000658 <RCC_AHB1PeriphClockCmd+0x3c>)
 800063e:	4b06      	ldr	r3, [pc, #24]	; (8000658 <RCC_AHB1PeriphClockCmd+0x3c>)
 8000640:	6b1a      	ldr	r2, [r3, #48]	; 0x30
 8000642:	687b      	ldr	r3, [r7, #4]
 8000644:	43db      	mvns	r3, r3
 8000646:	4013      	ands	r3, r2
 8000648:	630b      	str	r3, [r1, #48]	; 0x30
 800064a:	bf00      	nop
 800064c:	370c      	adds	r7, #12
 800064e:	46bd      	mov	sp, r7
 8000650:	f85d 7b04 	ldr.w	r7, [sp], #4
 8000654:	4770      	bx	lr
 8000656:	bf00      	nop
 8000658:	40023800 	andmi	r3, r2, r0, lsl #16

0800065c <GPIO_Init>:
 800065c:	b480      	push	{r7}
 800065e:	b087      	sub	sp, #28
 8000660:	af00      	add	r7, sp, #0
 8000662:	6078      	str	r0, [r7, #4]
 8000664:	6039      	str	r1, [r7, #0]
 8000666:	2300      	movs	r3, #0
 8000668:	617b      	str	r3, [r7, #20]
 800066a:	2300      	movs	r3, #0
 800066c:	613b      	str	r3, [r7, #16]
 800066e:	2300      	movs	r3, #0
 8000670:	60fb      	str	r3, [r7, #12]
 8000672:	2300      	movs	r3, #0
 8000674:	617b      	str	r3, [r7, #20]
 8000676:	e076      	b.n	8000766 <GPIO_Init+0x10a>
 8000678:	2201      	movs	r2, #1
 800067a:	697b      	ldr	r3, [r7, #20]
 800067c:	fa02 f303 	lsl.w	r3, r2, r3
 8000680:	613b      	str	r3, [r7, #16]
 8000682:	683b      	ldr	r3, [r7, #0]
 8000684:	681a      	ldr	r2, [r3, #0]
 8000686:	693b      	ldr	r3, [r7, #16]
 8000688:	4013      	ands	r3, r2
 800068a:	60fb      	str	r3, [r7, #12]
 800068c:	68fa      	ldr	r2, [r7, #12]
 800068e:	693b      	ldr	r3, [r7, #16]
 8000690:	429a      	cmp	r2, r3
 8000692:	d165      	bne.n	8000760 <GPIO_Init+0x104>
 8000694:	687b      	ldr	r3, [r7, #4]
 8000696:	681a      	ldr	r2, [r3, #0]
 8000698:	697b      	ldr	r3, [r7, #20]
 800069a:	005b      	lsls	r3, r3, #1
 800069c:	2103      	movs	r1, #3
 800069e:	fa01 f303 	lsl.w	r3, r1, r3
 80006a2:	43db      	mvns	r3, r3
 80006a4:	401a      	ands	r2, r3
 80006a6:	687b      	ldr	r3, [r7, #4]
 80006a8:	601a      	str	r2, [r3, #0]
 80006aa:	687b      	ldr	r3, [r7, #4]
 80006ac:	681a      	ldr	r2, [r3, #0]
 80006ae:	683b      	ldr	r3, [r7, #0]
 80006b0:	791b      	ldrb	r3, [r3, #4]
 80006b2:	4619      	mov	r1, r3
 80006b4:	697b      	ldr	r3, [r7, #20]
 80006b6:	005b      	lsls	r3, r3, #1
 80006b8:	fa01 f303 	lsl.w	r3, r1, r3
 80006bc:	431a      	orrs	r2, r3
 80006be:	687b      	ldr	r3, [r7, #4]
 80006c0:	601a      	str	r2, [r3, #0]
 80006c2:	683b      	ldr	r3, [r7, #0]
 80006c4:	791b      	ldrb	r3, [r3, #4]
 80006c6:	2b01      	cmp	r3, #1
 80006c8:	d003      	beq.n	80006d2 <GPIO_Init+0x76>
 80006ca:	683b      	ldr	r3, [r7, #0]
 80006cc:	791b      	ldrb	r3, [r3, #4]
 80006ce:	2b02      	cmp	r3, #2
 80006d0:	d12e      	bne.n	8000730 <GPIO_Init+0xd4>
 80006d2:	687b      	ldr	r3, [r7, #4]
 80006d4:	689a      	ldr	r2, [r3, #8]
 80006d6:	697b      	ldr	r3, [r7, #20]
 80006d8:	005b      	lsls	r3, r3, #1
 80006da:	2103      	movs	r1, #3
 80006dc:	fa01 f303 	lsl.w	r3, r1, r3
 80006e0:	43db      	mvns	r3, r3
 80006e2:	401a      	ands	r2, r3
 80006e4:	687b      	ldr	r3, [r7, #4]
 80006e6:	609a      	str	r2, [r3, #8]
 80006e8:	687b      	ldr	r3, [r7, #4]
 80006ea:	689a      	ldr	r2, [r3, #8]
 80006ec:	683b      	ldr	r3, [r7, #0]
 80006ee:	795b      	ldrb	r3, [r3, #5]
 80006f0:	4619      	mov	r1, r3
 80006f2:	697b      	ldr	r3, [r7, #20]
 80006f4:	005b      	lsls	r3, r3, #1
 80006f6:	fa01 f303 	lsl.w	r3, r1, r3
 80006fa:	431a      	orrs	r2, r3
 80006fc:	687b      	ldr	r3, [r7, #4]
 80006fe:	609a      	str	r2, [r3, #8]
 8000700:	687b      	ldr	r3, [r7, #4]
 8000702:	685a      	ldr	r2, [r3, #4]
 8000704:	697b      	ldr	r3, [r7, #20]
 8000706:	b29b      	uxth	r3, r3
 8000708:	2101      	movs	r1, #1
 800070a:	fa01 f303 	lsl.w	r3, r1, r3
 800070e:	43db      	mvns	r3, r3
 8000710:	401a      	ands	r2, r3
 8000712:	687b      	ldr	r3, [r7, #4]
 8000714:	605a      	str	r2, [r3, #4]
 8000716:	687b      	ldr	r3, [r7, #4]
 8000718:	685a      	ldr	r2, [r3, #4]
 800071a:	683b      	ldr	r3, [r7, #0]
 800071c:	799b      	ldrb	r3, [r3, #6]
 800071e:	4619      	mov	r1, r3
 8000720:	697b      	ldr	r3, [r7, #20]
 8000722:	b29b      	uxth	r3, r3
 8000724:	fa01 f303 	lsl.w	r3, r1, r3
 8000728:	b29b      	uxth	r3, r3
 800072a:	431a      	orrs	r2, r3
 800072c:	687b      	ldr	r3, [r7, #4]
 800072e:	605a      	str	r2, [r3, #4]
 8000730:	687b      	ldr	r3, [r7, #4]
 8000732:	68da      	ldr	r2, [r3, #12]
 8000734:	697b      	ldr	r3, [r7, #20]
 8000736:	b29b      	uxth	r3, r3
 8000738:	005b      	lsls	r3, r3, #1
 800073a:	2103      	movs	r1, #3
 800073c:	fa01 f303 	lsl.w	r3, r1, r3
 8000740:	43db      	mvns	r3, r3
 8000742:	401a      	ands	r2, r3
 8000744:	687b      	ldr	r3, [r7, #4]
 8000746:	60da      	str	r2, [r3, #12]
 8000748:	687b      	ldr	r3, [r7, #4]
 800074a:	68da      	ldr	r2, [r3, #12]
 800074c:	683b      	ldr	r3, [r7, #0]
 800074e:	79db      	ldrb	r3, [r3, #7]
 8000750:	4619      	mov	r1, r3
 8000752:	697b      	ldr	r3, [r7, #20]
 8000754:	005b      	lsls	r3, r3, #1
 8000756:	fa01 f303 	lsl.w	r3, r1, r3
 800075a:	431a      	orrs	r2, r3
 800075c:	687b      	ldr	r3, [r7, #4]
 800075e:	60da      	str	r2, [r3, #12]
 8000760:	697b      	ldr	r3, [r7, #20]
 8000762:	3301      	adds	r3, #1
 8000764:	617b      	str	r3, [r7, #20]
 8000766:	697b      	ldr	r3, [r7, #20]
 8000768:	2b0f      	cmp	r3, #15
 800076a:	d985      	bls.n	8000678 <GPIO_Init+0x1c>
 800076c:	bf00      	nop
 800076e:	371c      	adds	r7, #28
 8000770:	46bd      	mov	sp, r7
 8000772:	f85d 7b04 	ldr.w	r7, [sp], #4
 8000776:	4770      	bx	lr

08000778 <Reset_Handler>:
 8000778:	f8df d034 	ldr.w	sp, [pc, #52]	; 80007b0 <LoopFillZerobss+0x14>
 800077c:	2100      	movs	r1, #0
 800077e:	e003      	b.n	8000788 <LoopCopyDataInit>

08000780 <CopyDataInit>:
 8000780:	4b0c      	ldr	r3, [pc, #48]	; (80007b4 <LoopFillZerobss+0x18>)
 8000782:	585b      	ldr	r3, [r3, r1]
 8000784:	5043      	str	r3, [r0, r1]
 8000786:	3104      	adds	r1, #4

08000788 <LoopCopyDataInit>:
 8000788:	480b      	ldr	r0, [pc, #44]	; (80007b8 <LoopFillZerobss+0x1c>)
 800078a:	4b0c      	ldr	r3, [pc, #48]	; (80007bc <LoopFillZerobss+0x20>)
 800078c:	1842      	adds	r2, r0, r1
 800078e:	429a      	cmp	r2, r3
 8000790:	d3f6      	bcc.n	8000780 <CopyDataInit>
 8000792:	4a0b      	ldr	r2, [pc, #44]	; (80007c0 <LoopFillZerobss+0x24>)
 8000794:	e002      	b.n	800079c <LoopFillZerobss>

08000796 <FillZerobss>:
 8000796:	2300      	movs	r3, #0
 8000798:	f842 3b04 	str.w	r3, [r2], #4

0800079c <LoopFillZerobss>:
 800079c:	4b09      	ldr	r3, [pc, #36]	; (80007c4 <LoopFillZerobss+0x28>)
 800079e:	429a      	cmp	r2, r3
 80007a0:	d3f9      	bcc.n	8000796 <FillZerobss>
 80007a2:	f7ff fe3f 	bl	8000424 <SystemInit>
 80007a6:	f000 f811 	bl	80007cc <__libc_init_array>
 80007aa:	f7ff fe0f 	bl	80003cc <main>
 80007ae:	4770      	bx	lr
 80007b0:	20030000 	andcs	r0, r3, r0
 80007b4:	080009c4 	stmdaeq	r0, {r2, r6, r7, r8, fp}
 80007b8:	20000000 	andcs	r0, r0, r0
 80007bc:	20000430 	andcs	r0, r0, r0, lsr r4
 80007c0:	20000430 	andcs	r0, r0, r0, lsr r4
 80007c4:	2000045c 	andcs	r0, r0, ip, asr r4

080007c8 <ADC_IRQHandler>:
 80007c8:	e7fe      	b.n	80007c8 <ADC_IRQHandler>
	...

080007cc <__libc_init_array>:
 80007cc:	e92d4070 	push	{r4, r5, r6, lr}
 80007d0:	e59f6064 	ldr	r6, [pc, #100]	; 800083c <__libc_init_array+0x70>
 80007d4:	e59f5064 	ldr	r5, [pc, #100]	; 8000840 <__libc_init_array+0x74>
 80007d8:	e0656006 	rsb	r6, r5, r6
 80007dc:	e1b06146 	asrs	r6, r6, #2
 80007e0:	13a04000 	movne	r4, #0
 80007e4:	0a000005 	beq	8000800 <__libc_init_array+0x34>
 80007e8:	e2844001 	add	r4, r4, #1
 80007ec:	e4953004 	ldr	r3, [r5], #4
 80007f0:	e1a0e00f 	mov	lr, pc
 80007f4:	e12fff13 	bx	r3
 80007f8:	e1560004 	cmp	r6, r4
 80007fc:	1afffff9 	bne	80007e8 <__libc_init_array+0x1c>
 8000800:	e59f603c 	ldr	r6, [pc, #60]	; 8000844 <__libc_init_array+0x78>
 8000804:	e59f503c 	ldr	r5, [pc, #60]	; 8000848 <__libc_init_array+0x7c>
 8000808:	e0656006 	rsb	r6, r5, r6
 800080c:	ebfffe70 	bl	80001d4 <_init>
 8000810:	e1b06146 	asrs	r6, r6, #2
 8000814:	13a04000 	movne	r4, #0
 8000818:	0a000005 	beq	8000834 <__libc_init_array+0x68>
 800081c:	e2844001 	add	r4, r4, #1
 8000820:	e4953004 	ldr	r3, [r5], #4
 8000824:	e1a0e00f 	mov	lr, pc
 8000828:	e12fff13 	bx	r3
 800082c:	e1560004 	cmp	r6, r4
 8000830:	1afffff9 	bne	800081c <__libc_init_array+0x50>
 8000834:	e8bd4070 	pop	{r4, r5, r6, lr}
 8000838:	e12fff1e 	bx	lr
 800083c:	08000204 	stmdaeq	r0, {r2, r9}
 8000840:	08000204 	stmdaeq	r0, {r2, r9}
 8000844:	0800020c 	stmdaeq	r0, {r2, r3, r9}
 8000848:	08000204 	stmdaeq	r0, {r2, r9}

0800084c <register_fini>:
 800084c:	e59f3018 	ldr	r3, [pc, #24]	; 800086c <register_fini+0x20>
 8000850:	e3530000 	cmp	r3, #0
 8000854:	012fff1e 	bxeq	lr
 8000858:	e92d4010 	push	{r4, lr}
 800085c:	e59f000c 	ldr	r0, [pc, #12]	; 8000870 <register_fini+0x24>
 8000860:	eb000003 	bl	8000874 <atexit>
 8000864:	e8bd4010 	pop	{r4, lr}
 8000868:	e12fff1e 	bx	lr
 800086c:	00000000 	andeq	r0, r0, r0
 8000870:	08000894 	stmdaeq	r0, {r2, r4, r7, fp}

08000874 <atexit>:
 8000874:	e3a03000 	mov	r3, #0
 8000878:	e92d4010 	push	{r4, lr}
 800087c:	e1a01000 	mov	r1, r0
 8000880:	e1a02003 	mov	r2, r3
 8000884:	e1a00003 	mov	r0, r3
 8000888:	eb000012 	bl	80008d8 <__register_exitproc>
 800088c:	e8bd4010 	pop	{r4, lr}
 8000890:	e12fff1e 	bx	lr

08000894 <__libc_fini_array>:
 8000894:	e92d4070 	push	{r4, r5, r6, lr}
 8000898:	e59f5030 	ldr	r5, [pc, #48]	; 80008d0 <__libc_fini_array+0x3c>
 800089c:	e59f4030 	ldr	r4, [pc, #48]	; 80008d4 <__libc_fini_array+0x40>
 80008a0:	e0644005 	rsb	r4, r4, r5
 80008a4:	e1b04144 	asrs	r4, r4, #2
 80008a8:	0a000005 	beq	80008c4 <__libc_fini_array+0x30>
 80008ac:	e2444001 	sub	r4, r4, #1
 80008b0:	e5353004 	ldr	r3, [r5, #-4]!
 80008b4:	e1a0e00f 	mov	lr, pc
 80008b8:	e12fff13 	bx	r3
 80008bc:	e3540000 	cmp	r4, #0
 80008c0:	1afffff9 	bne	80008ac <__libc_fini_array+0x18>
 80008c4:	ebfffe48 	bl	80001ec <_fini>
 80008c8:	e8bd4070 	pop	{r4, r5, r6, lr}
 80008cc:	e12fff1e 	bx	lr
 80008d0:	08000210 	stmdaeq	r0, {r4, r9}
 80008d4:	0800020c 	stmdaeq	r0, {r2, r3, r9}

080008d8 <__register_exitproc>:
 80008d8:	e59fc0d0 	ldr	ip, [pc, #208]	; 80009b0 <__register_exitproc+0xd8>
 80008dc:	e92d41f0 	push	{r4, r5, r6, r7, r8, lr}
 80008e0:	e59c4000 	ldr	r4, [ip]
 80008e4:	e594c148 	ldr	ip, [r4, #328]	; 0x148
 80008e8:	e35c0000 	cmp	ip, #0
 80008ec:	0284cf53 	addeq	ip, r4, #332	; 0x14c
 80008f0:	e59ce004 	ldr	lr, [ip, #4]
 80008f4:	0584c148 	streq	ip, [r4, #328]	; 0x148
 80008f8:	e35e001f 	cmp	lr, #31
 80008fc:	e1a06001 	mov	r6, r1
 8000900:	e1a05000 	mov	r5, r0
 8000904:	e1a08002 	mov	r8, r2
 8000908:	e1a07003 	mov	r7, r3
 800090c:	d28e1001 	addle	r1, lr, #1
 8000910:	da00000f 	ble	8000954 <__register_exitproc+0x7c>
 8000914:	e59f3098 	ldr	r3, [pc, #152]	; 80009b4 <__register_exitproc+0xdc>
 8000918:	e3530000 	cmp	r3, #0
 800091c:	0a000021 	beq	80009a8 <__register_exitproc+0xd0>
 8000920:	e3a00e19 	mov	r0, #400	; 0x190
 8000924:	e320f000 	nop	{0}
 8000928:	e250c000 	subs	ip, r0, #0
 800092c:	0a00001d 	beq	80009a8 <__register_exitproc+0xd0>
 8000930:	e3a00000 	mov	r0, #0
 8000934:	e3a01001 	mov	r1, #1
 8000938:	e1a0e000 	mov	lr, r0
 800093c:	e5943148 	ldr	r3, [r4, #328]	; 0x148
 8000940:	e58c0004 	str	r0, [ip, #4]
 8000944:	e58c3000 	str	r3, [ip]
 8000948:	e584c148 	str	ip, [r4, #328]	; 0x148
 800094c:	e58c0188 	str	r0, [ip, #392]	; 0x188
 8000950:	e58c018c 	str	r0, [ip, #396]	; 0x18c
 8000954:	e3550000 	cmp	r5, #0
 8000958:	1a000005 	bne	8000974 <__register_exitproc+0x9c>
 800095c:	e3a00000 	mov	r0, #0
 8000960:	e28ee002 	add	lr, lr, #2
 8000964:	e58c1004 	str	r1, [ip, #4]
 8000968:	e78c610e 	str	r6, [ip, lr, lsl #2]
 800096c:	e8bd41f0 	pop	{r4, r5, r6, r7, r8, lr}
 8000970:	e12fff1e 	bx	lr
 8000974:	e3a00001 	mov	r0, #1
 8000978:	e08c410e 	add	r4, ip, lr, lsl #2
 800097c:	e5848088 	str	r8, [r4, #136]	; 0x88
 8000980:	e59c3188 	ldr	r3, [ip, #392]	; 0x188
 8000984:	e1a02e10 	lsl	r2, r0, lr
 8000988:	e1830002 	orr	r0, r3, r2
 800098c:	e58c0188 	str	r0, [ip, #392]	; 0x188
 8000990:	e5847108 	str	r7, [r4, #264]	; 0x108
 8000994:	e3550002 	cmp	r5, #2
 8000998:	059c318c 	ldreq	r3, [ip, #396]	; 0x18c
 800099c:	01832002 	orreq	r2, r3, r2
 80009a0:	058c218c 	streq	r2, [ip, #396]	; 0x18c
 80009a4:	eaffffec 	b	800095c <__register_exitproc+0x84>
 80009a8:	e3e00000 	mvn	r0, #0
 80009ac:	eaffffee 	b	800096c <__register_exitproc+0x94>
 80009b0:	080009bc 	stmdaeq	r0, {r2, r3, r4, r5, r7, r8, fp}
 80009b4:	00000000 	andeq	r0, r0, r0
 80009b8:	00000043 	andeq	r0, r0, r3, asr #32

080009bc <_global_impure_ptr>:
 80009bc:	20000008 	andcs	r0, r0, r8

080009c0 <__EH_FRAME_BEGIN__>:
 80009c0:	00000000 	andeq	r0, r0, r0

Disassembly of section ._check_stack:

2000045c <._check_stack>:
	...
